(dp0
S'aa'
p1
S'aa'
p2
sS'el'
p3
S'l'
p4
sS'ch'
p5
S'ch'
p6
sS'ae'
p7
S'ae'
p8
sS'eh'
p9
S'eh'
p10
sS'ix'
p11
S'ih'
p12
sS'ah'
p13
S'ah'
p14
sS'ao'
p15
S'aa'
p16
sS'ih'
p17
S'ih'
p18
sS'en'
p19
S'n'
p20
sS'ey'
p21
S'ey'
p22
sS'aw'
p23
S'aw'
p24
sS'ay'
p25
S'ay'
p26
sS'ax'
p27
S'ah'
p28
sS'er'
p29
S'er'
p30
sS'cl'
p31
S'sil'
p32
sS'vcl'
p33
S'sil'
p34
sS'ng'
p35
S'ng'
p36
sS'iy'
p37
S'iy'
p38
sS'sh'
p39
S'sh'
p40
sS'th'
p41
S'th'
p42
sS'sil'
p43
S'sil'
p44
sS'zh'
p45
S'sh'
p46
sS'w'
p47
g47
sS'dh'
p48
S'dh'
p49
sS'v'
p50
g50
sS'y'
p51
g51
sS'hh'
p52
S'hh'
p53
sS'jh'
p54
S'jh'
p55
sS'dx'
p56
S'dx'
p57
sS'b'
p58
g58
sS'd'
p59
g59
sS'g'
p60
g60
sS'f'
p61
g61
sS'k'
p62
g62
sS'm'
p63
g63
sg4
g4
sg20
g20
sS'uh'
p64
S'uh'
p65
sS'p'
p66
g66
sS's'
p67
g67
sS'r'
p68
g68
sS't'
p69
g69
sS'oy'
p70
S'oy'
p71
sS'epi'
p72
S'sil'
p73
sS'ow'
p74
S'ow'
p75
sS'z'
p76
g76
sS'uw'
p77
S'uw'
p78
s.